target datalayout = "e-m:e-p270:32:32-p271:32:32-p272:64:64-i64:64-i128:128-f80:128-n8:16:32:64-S128"
target triple = "x86_64-pc-linux-gnu"

%struct.dt_bilateral_t = type { i64, i64, i64, i32, i32, i32, i32, i32, float, float, float, float, ptr, [56 x i8] }

; Function Attrs: inlinehint nounwind uwtable
define internal i64 @dt_get_num_threads() #4 {
  ret i64 1
}

; Function Attrs: nounwind uwtable
define void @dt_bilateral_grid_size(ptr noundef %0, i32 noundef %1, i32 noundef %2, float noundef %3, float noundef %4, float noundef %5) #0 {
  %7 = alloca ptr, align 8
  %8 = alloca i32, align 4
  %9 = alloca i32, align 4
  %10 = alloca float, align 4
  %11 = alloca float, align 4
  %12 = alloca float, align 4
  %13 = alloca float, align 4
  %14 = alloca float, align 4
  %15 = alloca float, align 4
  store ptr %0, ptr %7, align 8, !tbaa !6
  store i32 %1, ptr %8, align 4, !tbaa !11
  store i32 %2, ptr %9, align 4, !tbaa !11
  store float %3, ptr %10, align 4, !tbaa !13
  store float %4, ptr %11, align 4, !tbaa !13
  store float %5, ptr %12, align 4, !tbaa !13
  %16 = load float, ptr %11, align 4, !tbaa !13
  %17 = fpext reassoc nsz arcp contract afn float %16 to double
  %18 = fcmp reassoc nsz arcp contract afn olt double %17, 5.000000e-01
  br i1 %18, label %19, label %20

19:                                               ; preds = %6
  store float 5.000000e-01, ptr %11, align 4, !tbaa !13
  br label %20

20:                                               ; preds = %19, %6
  call void @llvm.lifetime.start.p0(i64 4, ptr %13) #9
  %21 = load i32, ptr %8, align 4, !tbaa !11
  %22 = sitofp i32 %21 to float
  %23 = load float, ptr %11, align 4, !tbaa !13
  %24 = fdiv reassoc nsz arcp contract afn float %22, %23
  %25 = call reassoc nsz arcp contract afn float @llvm.round.f32(float %24)
  %26 = fptosi float %25 to i32
  %27 = icmp sgt i32 %26, 4
  br i1 %27, label %28, label %46

28:                                               ; preds = %20
  %29 = load i32, ptr %8, align 4, !tbaa !11
  %30 = sitofp i32 %29 to float
  %31 = load float, ptr %11, align 4, !tbaa !13
  %32 = fdiv reassoc nsz arcp contract afn float %30, %31
  %33 = call reassoc nsz arcp contract afn float @llvm.round.f32(float %32)
  %34 = fptosi float %33 to i32
  %35 = icmp slt i32 %34, 3000
  br i1 %35, label %36, label %43

36:                                               ; preds = %28
  %37 = load i32, ptr %8, align 4, !tbaa !11
  %38 = sitofp i32 %37 to float
  %39 = load float, ptr %11, align 4, !tbaa !13
  %40 = fdiv reassoc nsz arcp contract afn float %38, %39
  %41 = call reassoc nsz arcp contract afn float @llvm.round.f32(float %40)
  %42 = fptosi float %41 to i32
  br label %44

43:                                               ; preds = %28
  br label %44

44:                                               ; preds = %43, %36
  %45 = phi i32 [ %42, %36 ], [ 3000, %43 ]
  br label %47

46:                                               ; preds = %20
  br label %47

47:                                               ; preds = %46, %44
  %48 = phi i32 [ %45, %44 ], [ 4, %46 ]
  %49 = sitofp i32 %48 to float
  store float %49, ptr %13, align 4, !tbaa !13
  call void @llvm.lifetime.start.p0(i64 4, ptr %14) #9
  %50 = load i32, ptr %9, align 4, !tbaa !11
  %51 = sitofp i32 %50 to float
  %52 = load float, ptr %11, align 4, !tbaa !13
  %53 = fdiv reassoc nsz arcp contract afn float %51, %52
  %54 = call reassoc nsz arcp contract afn float @llvm.round.f32(float %53)
  %55 = fptosi float %54 to i32
  %56 = icmp sgt i32 %55, 4
  br i1 %56, label %57, label %75

57:                                               ; preds = %47
  %58 = load i32, ptr %9, align 4, !tbaa !11
  %59 = sitofp i32 %58 to float
  %60 = load float, ptr %11, align 4, !tbaa !13
  %61 = fdiv reassoc nsz arcp contract afn float %59, %60
  %62 = call reassoc nsz arcp contract afn float @llvm.round.f32(float %61)
  %63 = fptosi float %62 to i32
  %64 = icmp slt i32 %63, 3000
  br i1 %64, label %65, label %72

65:                                               ; preds = %57
  %66 = load i32, ptr %9, align 4, !tbaa !11
  %67 = sitofp i32 %66 to float
  %68 = load float, ptr %11, align 4, !tbaa !13
  %69 = fdiv reassoc nsz arcp contract afn float %67, %68
  %70 = call reassoc nsz arcp contract afn float @llvm.round.f32(float %69)
  %71 = fptosi float %70 to i32
  br label %73

72:                                               ; preds = %57
  br label %73

73:                                               ; preds = %72, %65
  %74 = phi i32 [ %71, %65 ], [ 3000, %72 ]
  br label %76

75:                                               ; preds = %47
  br label %76

76:                                               ; preds = %75, %73
  %77 = phi i32 [ %74, %73 ], [ 4, %75 ]
  %78 = sitofp i32 %77 to float
  store float %78, ptr %14, align 4, !tbaa !13
  call void @llvm.lifetime.start.p0(i64 4, ptr %15) #9
  %79 = load float, ptr %10, align 4, !tbaa !13
  %80 = load float, ptr %12, align 4, !tbaa !13
  %81 = fdiv reassoc nsz arcp contract afn float %79, %80
  %82 = call reassoc nsz arcp contract afn float @llvm.round.f32(float %81)
  %83 = fptosi float %82 to i32
  %84 = icmp sgt i32 %83, 4
  br i1 %84, label %85, label %101

85:                                               ; preds = %76
  %86 = load float, ptr %10, align 4, !tbaa !13
  %87 = load float, ptr %12, align 4, !tbaa !13
  %88 = fdiv reassoc nsz arcp contract afn float %86, %87
  %89 = call reassoc nsz arcp contract afn float @llvm.round.f32(float %88)
  %90 = fptosi float %89 to i32
  %91 = icmp slt i32 %90, 50
  br i1 %91, label %92, label %98

92:                                               ; preds = %85
  %93 = load float, ptr %10, align 4, !tbaa !13
  %94 = load float, ptr %12, align 4, !tbaa !13
  %95 = fdiv reassoc nsz arcp contract afn float %93, %94
  %96 = call reassoc nsz arcp contract afn float @llvm.round.f32(float %95)
  %97 = fptosi float %96 to i32
  br label %99

98:                                               ; preds = %85
  br label %99

99:                                               ; preds = %98, %92
  %100 = phi i32 [ %97, %92 ], [ 50, %98 ]
  br label %102

101:                                              ; preds = %76
  br label %102

102:                                              ; preds = %101, %99
  %103 = phi i32 [ %100, %99 ], [ 4, %101 ]
  %104 = sitofp i32 %103 to float
  store float %104, ptr %15, align 4, !tbaa !13
  %105 = load i32, ptr %9, align 4, !tbaa !11
  %106 = sitofp i32 %105 to float
  %107 = load float, ptr %14, align 4, !tbaa !13
  %108 = fdiv reassoc nsz arcp contract afn float %106, %107
  %109 = load i32, ptr %8, align 4, !tbaa !11
  %110 = sitofp i32 %109 to float
  %111 = load float, ptr %13, align 4, !tbaa !13
  %112 = fdiv reassoc nsz arcp contract afn float %110, %111
  %113 = fcmp reassoc nsz arcp contract afn ogt float %108, %112
  br i1 %113, label %114, label %119

114:                                              ; preds = %102
  %115 = load i32, ptr %9, align 4, !tbaa !11
  %116 = sitofp i32 %115 to float
  %117 = load float, ptr %14, align 4, !tbaa !13
  %118 = fdiv reassoc nsz arcp contract afn float %116, %117
  br label %124

119:                                              ; preds = %102
  %120 = load i32, ptr %8, align 4, !tbaa !11
  %121 = sitofp i32 %120 to float
  %122 = load float, ptr %13, align 4, !tbaa !13
  %123 = fdiv reassoc nsz arcp contract afn float %121, %122
  br label %124

124:                                              ; preds = %119, %114
  %125 = phi reassoc nsz arcp contract afn float [ %118, %114 ], [ %123, %119 ]
  %126 = load ptr, ptr %7, align 8, !tbaa !6
  %127 = getelementptr inbounds nuw %struct.dt_bilateral_t, ptr %126, i32 0, i32 8
  store float %125, ptr %127, align 4, !tbaa !15
  %128 = load float, ptr %10, align 4, !tbaa !13
  %129 = load float, ptr %15, align 4, !tbaa !13
  %130 = fdiv reassoc nsz arcp contract afn float %128, %129
  %131 = load ptr, ptr %7, align 8, !tbaa !6
  %132 = getelementptr inbounds nuw %struct.dt_bilateral_t, ptr %131, i32 0, i32 9
  store float %130, ptr %132, align 16, !tbaa !19
  %133 = load ptr, ptr %7, align 8, !tbaa !6
  %134 = getelementptr inbounds nuw %struct.dt_bilateral_t, ptr %133, i32 0, i32 8
  %135 = load float, ptr %134, align 4, !tbaa !15
  %136 = fdiv reassoc nsz arcp contract afn float 1.000000e+00, %135
  %137 = load ptr, ptr %7, align 8, !tbaa !6
  %138 = getelementptr inbounds nuw %struct.dt_bilateral_t, ptr %137, i32 0, i32 10
  store float %136, ptr %138, align 4, !tbaa !20
  %139 = load ptr, ptr %7, align 8, !tbaa !6
  %140 = getelementptr inbounds nuw %struct.dt_bilateral_t, ptr %139, i32 0, i32 9
  %141 = load float, ptr %140, align 16, !tbaa !19
  %142 = fdiv reassoc nsz arcp contract afn float 1.000000e+00, %141
  %143 = load ptr, ptr %7, align 8, !tbaa !6
  %144 = getelementptr inbounds nuw %struct.dt_bilateral_t, ptr %143, i32 0, i32 11
  store float %142, ptr %144, align 8, !tbaa !21
  %145 = load i32, ptr %8, align 4, !tbaa !11
  %146 = sitofp i32 %145 to float
  %147 = load ptr, ptr %7, align 8, !tbaa !6
  %148 = getelementptr inbounds nuw %struct.dt_bilateral_t, ptr %147, i32 0, i32 10
  %149 = load float, ptr %148, align 4, !tbaa !20
  %150 = fmul reassoc nsz arcp contract afn float %146, %149
  %151 = call reassoc nsz arcp contract afn float @llvm.ceil.f32(float %150)
  %152 = fptosi float %151 to i32
  %153 = add nsw i32 %152, 1
  %154 = sext i32 %153 to i64
  %155 = load ptr, ptr %7, align 8, !tbaa !6
  %156 = getelementptr inbounds nuw %struct.dt_bilateral_t, ptr %155, i32 0, i32 0
  store i64 %154, ptr %156, align 64, !tbaa !22
  %157 = load i32, ptr %9, align 4, !tbaa !11
  %158 = sitofp i32 %157 to float
  %159 = load ptr, ptr %7, align 8, !tbaa !6
  %160 = getelementptr inbounds nuw %struct.dt_bilateral_t, ptr %159, i32 0, i32 10
  %161 = load float, ptr %160, align 4, !tbaa !20
  %162 = fmul reassoc nsz arcp contract afn float %158, %161
  %163 = call reassoc nsz arcp contract afn float @llvm.ceil.f32(float %162)
  %164 = fptosi float %163 to i32
  %165 = add nsw i32 %164, 1
  %166 = sext i32 %165 to i64
  %167 = load ptr, ptr %7, align 8, !tbaa !6
  %168 = getelementptr inbounds nuw %struct.dt_bilateral_t, ptr %167, i32 0, i32 1
  store i64 %166, ptr %168, align 8, !tbaa !23
  %169 = load float, ptr %10, align 4, !tbaa !13
  %170 = load ptr, ptr %7, align 8, !tbaa !6
  %171 = getelementptr inbounds nuw %struct.dt_bilateral_t, ptr %170, i32 0, i32 11
  %172 = load float, ptr %171, align 8, !tbaa !21
  %173 = fmul reassoc nsz arcp contract afn float %169, %172
  %174 = call reassoc nsz arcp contract afn float @llvm.ceil.f32(float %173)
  %175 = fptosi float %174 to i32
  %176 = add nsw i32 %175, 1
  %177 = sext i32 %176 to i64
  %178 = load ptr, ptr %7, align 8, !tbaa !6
  %179 = getelementptr inbounds nuw %struct.dt_bilateral_t, ptr %178, i32 0, i32 2
  store i64 %177, ptr %179, align 16, !tbaa !24
  call void @llvm.lifetime.end.p0(i64 4, ptr %15) #9
  call void @llvm.lifetime.end.p0(i64 4, ptr %14) #9
  call void @llvm.lifetime.end.p0(i64 4, ptr %13) #9
  ret void
}

; Function Attrs: nounwind uwtable
define i64 @dt_bilateral_memory_use(i32 noundef %0, i32 noundef %1, float noundef %2, float noundef %3) #0 {
  %5 = alloca i32, align 4
  %6 = alloca i32, align 4
  %7 = alloca float, align 4
  %8 = alloca float, align 4
  %9 = alloca %struct.dt_bilateral_t, align 64
  %10 = alloca i64, align 8
  store i32 %0, ptr %5, align 4, !tbaa !11
  store i32 %1, ptr %6, align 4, !tbaa !11
  store float %2, ptr %7, align 4, !tbaa !13
  store float %3, ptr %8, align 4, !tbaa !13
  call void @llvm.lifetime.start.p0(i64 128, ptr %9) #9
  %11 = load i32, ptr %5, align 4, !tbaa !11
  %12 = load i32, ptr %6, align 4, !tbaa !11
  %13 = load float, ptr %7, align 4, !tbaa !13
  %14 = load float, ptr %8, align 4, !tbaa !13
  call void @dt_bilateral_grid_size(ptr noundef %9, i32 noundef %11, i32 noundef %12, float noundef 1.000000e+02, float noundef %13, float noundef %14)
  call void @llvm.lifetime.start.p0(i64 8, ptr %10) #9
  %15 = getelementptr inbounds nuw %struct.dt_bilateral_t, ptr %9, i32 0, i32 0
  %16 = load i64, ptr %15, align 64, !tbaa !22
  %17 = getelementptr inbounds nuw %struct.dt_bilateral_t, ptr %9, i32 0, i32 1
  %18 = load i64, ptr %17, align 8, !tbaa !23
  %19 = mul i64 %16, %18
  %20 = getelementptr inbounds nuw %struct.dt_bilateral_t, ptr %9, i32 0, i32 2
  %21 = load i64, ptr %20, align 16, !tbaa !24
  %22 = mul i64 %19, %21
  store i64 %22, ptr %10, align 8, !tbaa !25
  %23 = load i64, ptr %10, align 8, !tbaa !25
  %24 = call i64 @dt_get_num_threads()
  %25 = mul i64 3, %24
  %26 = getelementptr inbounds nuw %struct.dt_bilateral_t, ptr %9, i32 0, i32 0
  %27 = load i64, ptr %26, align 64, !tbaa !22
  %28 = mul i64 %25, %27
  %29 = getelementptr inbounds nuw %struct.dt_bilateral_t, ptr %9, i32 0, i32 2
  %30 = load i64, ptr %29, align 16, !tbaa !24
  %31 = mul i64 %28, %30
  %32 = add i64 %23, %31
  %33 = mul i64 %32, 4
  call void @llvm.lifetime.end.p0(i64 8, ptr %10) #9
  call void @llvm.lifetime.end.p0(i64 128, ptr %9) #9
  ret i64 %33
}